target datalayout = "e-m:e-p270:32:32-p271:32:32-p272:64:64-i64:64-i128:128-f80:128-n8:16:32:64-S128"
target triple = "x86_64-pc-linux-gnu"

%class.BoolValue = type <{ %class.Value, i8, [7 x i8] }>
%class.Value = type { ptr }

; Function Attrs: mustprogress uwtable
define noundef zeroext i1 @_ZNK9BoolValueeqERK5Value(ptr noundef nonnull align 8 dereferenceable(9) %0, ptr noundef nonnull align 8 dereferenceable(8) %1) unnamed_addr #1 align 2 {
  %3 = alloca i1, align 1
  %4 = alloca ptr, align 8
  %5 = alloca ptr, align 8
  store ptr %0, ptr %4, align 8
  store ptr %1, ptr %5, align 8
  %6 = load ptr, ptr %4, align 8
  %7 = load ptr, ptr %5, align 8
  %8 = load ptr, ptr %7, align 8
  %9 = getelementptr inbounds ptr, ptr %8, i64 10
  %10 = load ptr, ptr %9, align 8
  %11 = call noundef zeroext i1 %10(ptr noundef nonnull align 8 dereferenceable(8) %7)
  br i1 %11, label %12, label %24

12:                                               ; preds = %2
  %13 = getelementptr inbounds %class.BoolValue, ptr %6, i32 0, i32 1
  %14 = load i8, ptr %13, align 8
  %15 = trunc i8 %14 to i1
  %16 = zext i1 %15 to i32
  %17 = load ptr, ptr %5, align 8
  %18 = load ptr, ptr %17, align 8
  %19 = getelementptr inbounds ptr, ptr %18, i64 2
  %20 = load ptr, ptr %19, align 8
  %21 = call noundef zeroext i1 %20(ptr noundef nonnull align 8 dereferenceable(8) %17)
  %22 = zext i1 %21 to i32
  %23 = icmp eq i32 %16, %22
  store i1 %23, ptr %3, align 1
  br label %25

24:                                               ; preds = %2
  store i1 false, ptr %3, align 1
  br label %25

25:                                               ; preds = %24, %12
  %26 = load i1, ptr %3, align 1
  ret i1 %26
}