; Function Attrs: mustprogress uwtable
define noundef zeroext i1 @_ZNK9BoolValueeqERK5Value(ptr nocapture noundef nonnull readonly align 8 dereferenceable(9) %0, ptr noundef nonnull align 8 dereferenceable(8) %1) unnamed_addr #2 align 2 {
  %3 = load ptr, ptr %1, align 8
  %4 = getelementptr inbounds i8, ptr %3, i64 80
  %5 = load ptr, ptr %4, align 8
  %6 = tail call noundef zeroext i1 %5(ptr noundef nonnull align 8 dereferenceable(8) %1)
  br i1 %6, label %7, label %17

7:                                                ; preds = %2
  %8 = getelementptr inbounds i8, ptr %0, i64 8
  %9 = load i8, ptr %8, align 8
  %10 = load ptr, ptr %1, align 8
  %11 = getelementptr inbounds i8, ptr %10, i64 16
  %12 = load ptr, ptr %11, align 8
  %13 = tail call noundef zeroext i1 %12(ptr noundef nonnull align 8 dereferenceable(8) %1)
  %14 = and i8 %9, 1
  %15 = icmp eq i8 %14, 0
  %16 = xor i1 %15, %13
  br label %17

17:                                               ; preds = %2, %7
  %.0 = phi i1 [ %16, %7 ], [ false, %2 ]
  ret i1 %.0
}